Certificate:
    Data:
        Version: 3 (0x2)
        Serial Number:
            40:15:ce:b9:30:44:08:80:f4:ee:c1:72:7b:85:c5:52:77:62:3f:db
        Signature Algorithm: sha256WithRSAEncryption
        Issuer: C = IN, ST = KA, L = MG, O = infilect, OU = DevOps, CN = localhost
        Validity
            Not Before: May 11 15:54:45 2020 GMT
            Not After : May 11 15:54:45 2021 GMT
        Subject: C = IN, ST = KA, L = MG, O = infilect, OU = DevOps, CN = localhost
        Subject Public Key Info:
            Public Key Algorithm: rsaEncryption
                RSA Public-Key: (2048 bit)
                Modulus:
                    00:b2:94:16:9a:9c:69:c9:2f:82:82:da:46:cf:4d:
                    de:ac:b1:8e:ad:9a:91:45:d9:64:f3:33:5f:f2:d4:
                    17:c7:19:a7:7c:f7:c9:94:b9:8d:d4:51:e4:e2:63:
                    88:f2:40:09:f1:de:6b:02:be:e3:1d:8a:56:1e:68:
                    d0:93:32:67:11:69:20:32:6b:d8:f2:96:77:ff:39:
                    53:91:4e:8d:c6:4f:09:d3:3c:b7:13:c3:e4:9e:a2:
                    d5:2f:87:a6:e7:57:f0:8e:4b:28:ab:1c:b7:1a:39:
                    d6:7e:04:88:fe:d5:df:78:50:cd:81:8d:24:46:9d:
                    85:24:9c:2d:f5:26:2d:0e:64:83:83:f9:0e:0b:f3:
                    5c:4d:67:da:c3:c2:1e:22:47:29:8f:51:ae:54:0f:
                    93:75:86:96:a5:9a:0e:04:20:55:8f:97:d1:40:c2:
                    92:d9:bf:a3:59:a1:1f:41:35:84:81:36:c4:db:0c:
                    b2:be:44:fe:81:5f:cf:fc:25:40:e2:d4:a8:55:f9:
                    64:09:73:33:6d:06:86:c9:9a:65:9a:3c:bd:8a:14:
                    c9:c8:c9:9f:2e:4e:40:ac:29:de:a1:65:7d:96:f7:
                    6c:a5:eb:12:fe:74:47:59:91:8e:af:76:79:93:88:
                    a8:a2:49:5d:fc:32:d6:da:66:a5:16:00:75:d0:06:
                    28:fb
                Exponent: 65537 (0x10001)
        X509v3 extensions:
            X509v3 Subject Alternative Name: 
                DNS:localhost, DNS:127.0.0.1
    Signature Algorithm: sha256WithRSAEncryption
         a5:52:9a:aa:b5:a9:ce:c3:ad:0a:33:5c:f0:09:ee:fe:88:d6:
         04:1d:fe:9b:12:fa:1b:00:3c:2a:ce:f7:44:42:59:3a:31:3e:
         65:da:29:f1:6a:a0:28:84:b3:65:e8:04:8f:ce:4d:f8:de:4d:
         61:16:14:0f:53:9b:ca:1b:3e:9b:f4:f4:bc:53:8f:2c:4a:7d:
         5f:df:60:af:b3:43:be:ae:2c:e7:36:04:58:97:d4:95:d5:dc:
         43:e1:fd:70:a2:8d:d6:f6:d6:73:c7:02:29:37:e1:d3:dc:e9:
         39:36:55:45:5a:3a:42:99:59:2f:9f:e3:52:91:aa:c6:e3:ea:
         6c:3c:07:22:5c:8b:35:29:2b:25:6b:dc:15:1a:ce:73:92:67:
         2f:a2:5b:43:a3:39:ce:6e:30:9e:95:21:bf:17:5a:58:6f:9e:
         ee:e6:5e:01:28:c4:35:00:8f:b7:f0:d4:43:50:0c:35:0f:7f:
         27:f9:06:bf:c9:95:1d:28:d1:7c:79:a3:3a:ed:2c:ae:c1:db:
         fd:cb:01:13:ec:ea:b1:f9:ba:74:7f:1d:c7:c8:16:e3:f4:35:
         70:07:fc:0d:d9:b7:6e:83:14:d8:a6:f9:c0:0e:4c:3e:d6:78:
         b1:e3:bd:67:cb:ab:3e:51:9c:1b:f7:89:df:f6:c4:2d:37:d2:
         2d:4e:17:4c
-----BEGIN CERTIFICATE-----
MIIDbzCCAlegAwIBAgIUQBXOuTBECID07sFye4XFUndiP9swDQYJKoZIhvcNAQEL
BQAwXzELMAkGA1UEBhMCSU4xCzAJBgNVBAgMAktBMQswCQYDVQQHDAJNRzERMA8G
A1UECgwIaW5maWxlY3QxDzANBgNVBAsMBkRldk9wczESMBAGA1UEAwwJbG9jYWxo
b3N0MB4XDTIwMDUxMTE1NTQ0NVoXDTIxMDUxMTE1NTQ0NVowXzELMAkGA1UEBhMC
SU4xCzAJBgNVBAgMAktBMQswCQYDVQQHDAJNRzERMA8GA1UECgwIaW5maWxlY3Qx
DzANBgNVBAsMBkRldk9wczESMBAGA1UEAwwJbG9jYWxob3N0MIIBIjANBgkqhkiG
9w0BAQEFAAOCAQ8AMIIBCgKCAQEAspQWmpxpyS+CgtpGz03erLGOrZqRRdlk8zNf
8tQXxxmnfPfJlLmN1FHk4mOI8kAJ8d5rAr7jHYpWHmjQkzJnEWkgMmvY8pZ3/zlT
kU6Nxk8J0zy3E8PknqLVL4em51fwjksoqxy3GjnWfgSI/tXfeFDNgY0kRp2FJJwt
9SYtDmSDg/kOC/NcTWfaw8IeIkcpj1GuVA+TdYaWpZoOBCBVj5fRQMKS2b+jWaEf
QTWEgTbE2wyyvkT+gV/P/CVA4tSoVflkCXMzbQaGyZplmjy9ihTJyMmfLk5ArCne
oWV9lvdspesS/nRHWZGOr3Z5k4iookld/DLW2malFgB10AYo+wIDAQABoyMwITAf
BgNVHREEGDAWgglsb2NhbGhvc3SCCTEyNy4wLjAuMTANBgkqhkiG9w0BAQsFAAOC
AQEApVKaqrWpzsOtCjNc8Anu/ojWBB3+mxL6GwA8Ks73REJZOjE+Zdop8WqgKISz
ZegEj85N+N5NYRYUD1Obyhs+m/T0vFOPLEp9X99gr7NDvq4s5zYEWJfUldXcQ+H9
cKKN1vbWc8cCKTfh09zpOTZVRVo6QplZL5/jUpGqxuPqbDwHIlyLNSkrJWvcFRrO
c5JnL6JbQ6M5zm4wnpUhvxdaWG+e7uZeASjENQCPt/DUQ1AMNQ9/J/kGv8mVHSjR
fHmjOu0srsHb/csBE+zqsfm6dH8dx8gW4/Q1cAf8Ddm3boMU2Kb5wA5MPtZ4seO9
Z8urPlGcG/eJ3/bELTfSLU4XTA==
-----END CERTIFICATE-----
